target datalayout = "e-m:e-p270:32:32-p271:32:32-p272:64:64-i64:64-i128:128-f80:128-n8:16:32:64-S128"
target triple = "x86_64-pc-linux-gnu"

%struct.GCRef = type { i64 }
%struct.jit_State = type { %struct.GCtrace, ptr, ptr, ptr, ptr, ptr, ptr, i32, i32, i32, i8, i8, %struct.IRType1, i8, %struct.FoldState, ptr, i32, i32, i32, i32, i32, i32, i32, [1 x i32], [5 x %union.TValue], [3 x %union.TValue], ptr, i32, i32, i32, i32, ptr, ptr, i32, i32, i8, ptr, i32, i32, i16, [101 x i16], [258 x i32], [15 x i32], [16 x ptr], [64 x %struct.HotPenalty], i32, [16 x %struct.BPropEntry], i32, %struct.ScEvEntry, ptr, i32, i32, i32, ptr, i32, i32, ptr, ptr, ptr, i64, i64, %union.TValue, ptr, i32, i32 }
%struct.GCtrace = type { %struct.GCRef, i8, i8, i16, i32, i32, %struct.GCRef, ptr, i32, i32, ptr, ptr, %struct.GCRef, %struct.MRef, i32, i32, ptr, i32, i16, i16, i16, i16, i16, i16, i16, i8, i8, i8, i8 }
%struct.MRef = type { i64 }
%struct.IRType1 = type { i8 }
%struct.FoldState = type { %union.IRIns, [2 x %union.IRIns], [2 x %union.IRIns] }
%union.IRIns = type { %struct.GCRef }
%struct.HotPenalty = type { %struct.MRef, i16, i16 }
%struct.BPropEntry = type { i16, i16, i32 }
%struct.ScEvEntry = type { %struct.MRef, i16, i16, i16, i16, %struct.IRType1, i8 }
%union.TValue = type { i64 }
%struct.anon.2 = type { i16, i16, i16, i16 }
%struct.RecordFFData = type { ptr, i64, i32 }
%struct.GCudata = type { %struct.GCRef, i8, i8, i8, i8, %struct.GCRef, i32, %struct.GCRef, i32 }
%struct.anon.3 = type { i32, %struct.IRType1, i8, i8, i8 }

; Function Attrs: alwaysinline nounwind uwtable
define internal void @lj_ir_set_(ptr noundef %0, i16 noundef zeroext %1, i16 noundef zeroext %2, i16 noundef zeroext %3) #1 {
  %5 = alloca ptr, align 8
  %6 = alloca i16, align 2
  %7 = alloca i16, align 2
  %8 = alloca i16, align 2
  store ptr %0, ptr %5, align 8, !tbaa !4
  store i16 %1, ptr %6, align 2, !tbaa !14
  store i16 %2, ptr %7, align 2, !tbaa !14
  store i16 %3, ptr %8, align 2, !tbaa !14
  %9 = load i16, ptr %6, align 2, !tbaa !14
  %10 = load ptr, ptr %5, align 8, !tbaa !4
  %11 = getelementptr inbounds nuw %struct.jit_State, ptr %10, i32 0, i32 14
  %12 = getelementptr inbounds nuw %struct.FoldState, ptr %11, i32 0, i32 0
  %13 = getelementptr inbounds nuw %struct.anon.2, ptr %12, i32 0, i32 2
  store i16 %9, ptr %13, align 4, !tbaa !13
  %14 = load i16, ptr %7, align 2, !tbaa !14
  %15 = load ptr, ptr %5, align 8, !tbaa !4
  %16 = getelementptr inbounds nuw %struct.jit_State, ptr %15, i32 0, i32 14
  %17 = getelementptr inbounds nuw %struct.FoldState, ptr %16, i32 0, i32 0
  %18 = getelementptr inbounds nuw %struct.anon.2, ptr %17, i32 0, i32 0
  store i16 %14, ptr %18, align 8, !tbaa !13
  %19 = load i16, ptr %8, align 2, !tbaa !14
  %20 = load ptr, ptr %5, align 8, !tbaa !4
  %21 = getelementptr inbounds nuw %struct.jit_State, ptr %20, i32 0, i32 14
  %22 = getelementptr inbounds nuw %struct.FoldState, ptr %21, i32 0, i32 0
  %23 = getelementptr inbounds nuw %struct.anon.2, ptr %22, i32 0, i32 1
  store i16 %19, ptr %23, align 2, !tbaa !13
  ret void
}

; Function Attrs: nounwind uwtable
define internal i32 @recff_sbufx_write(ptr noundef %0, i32 noundef %1) #0 {
  %3 = alloca ptr, align 8
  %4 = alloca i32, align 4
  %5 = alloca i32, align 4
  store ptr %0, ptr %3, align 8, !tbaa !4
  store i32 %1, ptr %4, align 4, !tbaa !9
  call void @llvm.lifetime.start.p0(i64 4, ptr %5) #9
  %6 = load ptr, ptr %3, align 8, !tbaa !4
  %7 = load i32, ptr %4, align 4, !tbaa !9
  %8 = trunc i32 %7 to i16
  %9 = load ptr, ptr %3, align 8, !tbaa !4
  %10 = call i32 @lj_ir_kint64(ptr noundef %9, i64 noundef 48)
  %11 = trunc i32 %10 to i16
  call void @lj_ir_set_(ptr noundef %6, i16 noundef zeroext 10505, i16 noundef zeroext %8, i16 noundef zeroext %11)
  %12 = load ptr, ptr %3, align 8, !tbaa !4
  %13 = call i32 @lj_opt_fold(ptr noundef %12)
  store i32 %13, ptr %5, align 4, !tbaa !9
  %14 = load ptr, ptr %3, align 8, !tbaa !4
  %15 = load i32, ptr %5, align 4, !tbaa !9
  %16 = trunc i32 %15 to i16
  call void @lj_ir_set_(ptr noundef %14, i16 noundef zeroext 21769, i16 noundef zeroext %16, i16 noundef zeroext 2)
  %17 = load ptr, ptr %3, align 8, !tbaa !4
  %18 = call i32 @lj_opt_fold(ptr noundef %17)
  call void @llvm.lifetime.end.p0(i64 4, ptr %5) #9
  ret i32 %18
}

; Function Attrs: nounwind uwtable
define internal i32 @recff_sbufx_check(ptr noundef %0, ptr noundef %1, i64 noundef %2) #0 {
  %4 = alloca ptr, align 8
  %5 = alloca ptr, align 8
  %6 = alloca i64, align 8
  %7 = alloca i32, align 4
  %8 = alloca i32, align 4
  store ptr %0, ptr %4, align 8, !tbaa !4
  store ptr %1, ptr %5, align 8, !tbaa !46
  store i64 %2, ptr %6, align 8, !tbaa !60
  call void @llvm.lifetime.start.p0(i64 4, ptr %7) #9
  call void @llvm.lifetime.start.p0(i64 4, ptr %8) #9
  %9 = load ptr, ptr %4, align 8, !tbaa !4
  %10 = getelementptr inbounds nuw %struct.jit_State, ptr %9, i32 0, i32 6
  %11 = load ptr, ptr %10, align 8, !tbaa !41
  %12 = load i64, ptr %6, align 8, !tbaa !60
  %13 = getelementptr inbounds i32, ptr %11, i64 %12
  %14 = load i32, ptr %13, align 4, !tbaa !9
  store i32 %14, ptr %8, align 4, !tbaa !9
  %15 = load ptr, ptr %5, align 8, !tbaa !46
  %16 = getelementptr inbounds nuw %struct.RecordFFData, ptr %15, i32 0, i32 0
  %17 = load ptr, ptr %16, align 8, !tbaa !40
  %18 = load i64, ptr %6, align 8, !tbaa !60
  %19 = getelementptr inbounds %union.TValue, ptr %17, i64 %18
  %20 = load i64, ptr %19, align 8, !tbaa !13
  %21 = ashr i64 %20, 47
  %22 = trunc i64 %21 to i32
  %23 = icmp eq i32 %22, -13
  br i1 %23, label %24, label %38

24:                                               ; preds = %3
  %25 = load ptr, ptr %5, align 8, !tbaa !46
  %26 = getelementptr inbounds nuw %struct.RecordFFData, ptr %25, i32 0, i32 0
  %27 = load ptr, ptr %26, align 8, !tbaa !40
  %28 = load i64, ptr %6, align 8, !tbaa !60
  %29 = getelementptr inbounds %union.TValue, ptr %27, i64 %28
  %30 = getelementptr inbounds nuw %struct.GCRef, ptr %29, i32 0, i32 0
  %31 = load i64, ptr %30, align 8, !tbaa !13
  %32 = and i64 %31, 140737488355327
  %33 = inttoptr i64 %32 to ptr
  %34 = getelementptr inbounds nuw %struct.GCudata, ptr %33, i32 0, i32 3
  %35 = load i8, ptr %34, align 2, !tbaa !13
  %36 = zext i8 %35 to i32
  %37 = icmp eq i32 %36, 3
  br i1 %37, label %40, label %38

38:                                               ; preds = %24, %3
  %39 = load ptr, ptr %4, align 8, !tbaa !4
  call void @lj_trace_err(ptr noundef %39, i32 noundef 11) #10
  unreachable

40:                                               ; preds = %24
  %41 = load ptr, ptr %4, align 8, !tbaa !4
  %42 = load i32, ptr %8, align 4, !tbaa !9
  %43 = trunc i32 %42 to i16
  call void @lj_ir_set_(ptr noundef %41, i16 noundef zeroext 17680, i16 noundef zeroext %43, i16 noundef zeroext 12)
  %44 = load ptr, ptr %4, align 8, !tbaa !4
  %45 = call i32 @lj_opt_fold(ptr noundef %44)
  store i32 %45, ptr %7, align 4, !tbaa !9
  %46 = load ptr, ptr %4, align 8, !tbaa !4
  %47 = load i32, ptr %7, align 4, !tbaa !9
  %48 = trunc i32 %47 to i16
  %49 = load ptr, ptr %4, align 8, !tbaa !4
  %50 = call i32 @lj_ir_kint(ptr noundef %49, i32 noundef 3)
  %51 = trunc i32 %50 to i16
  call void @lj_ir_set_(ptr noundef %46, i16 noundef zeroext 2195, i16 noundef zeroext %48, i16 noundef zeroext %51)
  %52 = load ptr, ptr %4, align 8, !tbaa !4
  %53 = call i32 @lj_opt_fold(ptr noundef %52)
  %54 = load ptr, ptr %4, align 8, !tbaa !4
  %55 = getelementptr inbounds nuw %struct.jit_State, ptr %54, i32 0, i32 11
  store i8 1, ptr %55, align 1, !tbaa !58
  %56 = load i32, ptr %8, align 4, !tbaa !9
  call void @llvm.lifetime.end.p0(i64 4, ptr %8) #9
  call void @llvm.lifetime.end.p0(i64 4, ptr %7) #9
  ret i32 %56
}

; Function Attrs: nounwind uwtable
define internal void @recff_buffer_method_set(ptr noundef %0, ptr noundef %1) #0 {
  %3 = alloca ptr, align 8
  %4 = alloca ptr, align 8
  %5 = alloca i32, align 4
  %6 = alloca i32, align 4
  %7 = alloca i32, align 4
  %8 = alloca i32, align 4
  %9 = alloca i32, align 4
  %10 = alloca ptr, align 8
  %11 = alloca i32, align 4
  %12 = alloca i32, align 4
  store ptr %0, ptr %3, align 8, !tbaa !4
  store ptr %1, ptr %4, align 8, !tbaa !46
  call void @llvm.lifetime.start.p0(i64 4, ptr %5) #9
  %13 = load ptr, ptr %3, align 8, !tbaa !4
  %14 = load ptr, ptr %4, align 8, !tbaa !46
  %15 = call i32 @recff_sbufx_check(ptr noundef %13, ptr noundef %14, i64 noundef 0)
  store i32 %15, ptr %5, align 4, !tbaa !9
  call void @llvm.lifetime.start.p0(i64 4, ptr %6) #9
  %16 = load ptr, ptr %3, align 8, !tbaa !4
  %17 = load i32, ptr %5, align 4, !tbaa !9
  %18 = call i32 @recff_sbufx_write(ptr noundef %16, i32 noundef %17)
  store i32 %18, ptr %6, align 4, !tbaa !9
  call void @llvm.lifetime.start.p0(i64 4, ptr %7) #9
  %19 = load ptr, ptr %3, align 8, !tbaa !4
  %20 = getelementptr inbounds nuw %struct.jit_State, ptr %19, i32 0, i32 6
  %21 = load ptr, ptr %20, align 8, !tbaa !41
  %22 = getelementptr inbounds i32, ptr %21, i64 1
  %23 = load i32, ptr %22, align 4, !tbaa !9
  store i32 %23, ptr %7, align 4, !tbaa !9
  %24 = load i32, ptr %7, align 4, !tbaa !9
  %25 = and i32 %24, 520093696
  %26 = icmp eq i32 %25, 67108864
  br i1 %26, label %27, label %81

27:                                               ; preds = %2
  call void @llvm.lifetime.start.p0(i64 4, ptr %8) #9
  %28 = load ptr, ptr %3, align 8, !tbaa !4
  %29 = load i32, ptr %7, align 4, !tbaa !9
  %30 = trunc i32 %29 to i16
  %31 = load ptr, ptr %3, align 8, !tbaa !4
  %32 = call i32 @lj_ir_kint(ptr noundef %31, i32 noundef 0)
  %33 = trunc i32 %32 to i16
  call void @lj_ir_set_(ptr noundef %28, i16 noundef zeroext 16393, i16 noundef zeroext %30, i16 noundef zeroext %33)
  %34 = load ptr, ptr %3, align 8, !tbaa !4
  %35 = call i32 @lj_opt_fold(ptr noundef %34)
  store i32 %35, ptr %8, align 4, !tbaa !9
  call void @llvm.lifetime.start.p0(i64 4, ptr %9) #9
  %36 = load ptr, ptr %3, align 8, !tbaa !4
  %37 = load i32, ptr %7, align 4, !tbaa !9
  %38 = trunc i32 %37 to i16
  call void @lj_ir_set_(ptr noundef %36, i16 noundef zeroext 17683, i16 noundef zeroext %38, i16 noundef zeroext 0)
  %39 = load ptr, ptr %3, align 8, !tbaa !4
  %40 = call i32 @lj_opt_fold(ptr noundef %39)
  store i32 %40, ptr %9, align 4, !tbaa !9
  call void @llvm.lifetime.start.p0(i64 8, ptr %10) #9
  %41 = load ptr, ptr %3, align 8, !tbaa !4
  %42 = getelementptr inbounds nuw %struct.jit_State, ptr %41, i32 0, i32 0
  %43 = getelementptr inbounds nuw %struct.GCtrace, ptr %42, i32 0, i32 7
  %44 = load ptr, ptr %43, align 8, !tbaa !59
  %45 = load i32, ptr %8, align 4, !tbaa !9
  %46 = trunc i32 %45 to i16
  %47 = zext i16 %46 to i64
  %48 = getelementptr inbounds nuw %union.IRIns, ptr %44, i64 %47
  store ptr %48, ptr %10, align 8, !tbaa !76
  %49 = load ptr, ptr %10, align 8, !tbaa !76
  %50 = getelementptr inbounds nuw %struct.anon.3, ptr %49, i32 0, i32 2
  %51 = load i8, ptr %50, align 1, !tbaa !13
  %52 = zext i8 %51 to i32
  %53 = icmp eq i32 %52, 64
  br i1 %53, label %54, label %59

54:                                               ; preds = %27
  %55 = load ptr, ptr %10, align 8, !tbaa !76
  %56 = getelementptr inbounds nuw %struct.anon.2, ptr %55, i32 0, i32 0
  %57 = load i16, ptr %56, align 8, !tbaa !13
  %58 = zext i16 %57 to i32
  store i32 %58, ptr %7, align 4, !tbaa !9
  br label %74

59:                                               ; preds = %27
  %60 = load i32, ptr %7, align 4, !tbaa !9
  %61 = trunc i32 %60 to i16
  %62 = zext i16 %61 to i32
  %63 = icmp slt i32 %62, 32768
  br i1 %63, label %73, label %64

64:                                               ; preds = %59
  %65 = load ptr, ptr %3, align 8, !tbaa !4
  %66 = load i32, ptr %7, align 4, !tbaa !9
  %67 = trunc i32 %66 to i16
  %68 = load ptr, ptr %3, align 8, !tbaa !4
  %69 = call i32 @lj_ir_kint64(ptr noundef %68, i64 noundef 24)
  %70 = trunc i32 %69 to i16
  call void @lj_ir_set_(ptr noundef %65, i16 noundef zeroext 10505, i16 noundef zeroext %67, i16 noundef zeroext %70)
  %71 = load ptr, ptr %3, align 8, !tbaa !4
  %72 = call i32 @lj_opt_fold(ptr noundef %71)
  store i32 %72, ptr %8, align 4, !tbaa !9
  br label %73

73:                                               ; preds = %64, %59
  br label %74

74:                                               ; preds = %73, %54
  %75 = load ptr, ptr %3, align 8, !tbaa !4
  %76 = load i32, ptr %6, align 4, !tbaa !9
  %77 = load i32, ptr %8, align 4, !tbaa !9
  %78 = load i32, ptr %9, align 4, !tbaa !9
  %79 = load i32, ptr %7, align 4, !tbaa !9
  %80 = call i32 (ptr, i32, ...) @lj_ir_call(ptr noundef %75, i32 noundef 24, i32 noundef %76, i32 noundef %77, i32 noundef %78, i32 noundef %79)
  call void @llvm.lifetime.end.p0(i64 8, ptr %10) #9
  call void @llvm.lifetime.end.p0(i64 4, ptr %9) #9
  call void @llvm.lifetime.end.p0(i64 4, ptr %8) #9
  br label %103

81:                                               ; preds = %2
  %82 = load i32, ptr %7, align 4, !tbaa !9
  %83 = and i32 %82, 520093696
  %84 = icmp eq i32 %83, 167772160
  br i1 %84, label %85, label %102

85:                                               ; preds = %81
  call void @llvm.lifetime.start.p0(i64 4, ptr %11) #9
  %86 = load ptr, ptr %3, align 8, !tbaa !4
  %87 = load i32, ptr %7, align 4, !tbaa !9
  %88 = load ptr, ptr %4, align 8, !tbaa !46
  %89 = getelementptr inbounds nuw %struct.RecordFFData, ptr %88, i32 0, i32 0
  %90 = load ptr, ptr %89, align 8, !tbaa !40
  %91 = getelementptr inbounds %union.TValue, ptr %90, i64 1
  %92 = call i32 @lj_crecord_topcvoid(ptr noundef %86, i32 noundef %87, ptr noundef %91)
  store i32 %92, ptr %11, align 4, !tbaa !9
  call void @llvm.lifetime.start.p0(i64 4, ptr %12) #9
  %93 = load ptr, ptr %3, align 8, !tbaa !4
  %94 = load ptr, ptr %4, align 8, !tbaa !46
  %95 = call i32 @recff_sbufx_checkint(ptr noundef %93, ptr noundef %94, i64 noundef 2)
  store i32 %95, ptr %12, align 4, !tbaa !9
  %96 = load ptr, ptr %3, align 8, !tbaa !4
  %97 = load i32, ptr %6, align 4, !tbaa !9
  %98 = load i32, ptr %11, align 4, !tbaa !9
  %99 = load i32, ptr %12, align 4, !tbaa !9
  %100 = load i32, ptr %7, align 4, !tbaa !9
  %101 = call i32 (ptr, i32, ...) @lj_ir_call(ptr noundef %96, i32 noundef 24, i32 noundef %97, i32 noundef %98, i32 noundef %99, i32 noundef %100)
  call void @llvm.lifetime.end.p0(i64 4, ptr %12) #9
  call void @llvm.lifetime.end.p0(i64 4, ptr %11) #9
  br label %102

102:                                              ; preds = %85, %81
  br label %103

103:                                              ; preds = %102, %74
  call void @llvm.lifetime.end.p0(i64 4, ptr %7) #9
  call void @llvm.lifetime.end.p0(i64 4, ptr %6) #9
  call void @llvm.lifetime.end.p0(i64 4, ptr %5) #9
  ret void
}