; Function Attrs: nounwind uwtable
define internal void @recff_buffer_method_set(ptr noundef %0, ptr noundef readonly captures(none) %1) #0 {
  %.val = load ptr, ptr %1, align 8, !tbaa !36
  %3 = getelementptr inbounds nuw i8, ptr %0, i64 160
  %4 = load ptr, ptr %3, align 8, !tbaa !37
  %5 = load i32, ptr %4, align 4, !tbaa !39
  %6 = load i64, ptr %.val, align 8, !tbaa !4
  %.mask.i = and i64 %6, -140737488355328
  %7 = icmp eq i64 %.mask.i, -1829587348619264
  br i1 %7, label %8, label %14

8:                                                ; preds = %2
  %9 = and i64 %6, 140737488355327
  %10 = inttoptr i64 %9 to ptr
  %11 = getelementptr inbounds nuw i8, ptr %10, i64 10
  %12 = load i8, ptr %11, align 2, !tbaa !4
  %13 = icmp eq i8 %12, 3
  br i1 %13, label %recff_sbufx_check.exit, label %14

14:                                               ; preds = %8, %2
  tail call void @lj_trace_err(ptr noundef nonnull %0, i32 noundef 11) #10
  unreachable

recff_sbufx_check.exit:                           ; preds = %8
  %15 = trunc i32 %5 to i16
  %16 = getelementptr inbounds nuw i8, ptr %0, i64 184
  %17 = getelementptr inbounds nuw i8, ptr %0, i64 188
  store i16 17680, ptr %17, align 4, !tbaa !4
  store i16 %15, ptr %16, align 8, !tbaa !4
  %18 = getelementptr inbounds nuw i8, ptr %0, i64 186
  store i16 12, ptr %18, align 2, !tbaa !4
  %19 = tail call i32 @lj_opt_fold(ptr noundef nonnull %0) #9
  %20 = trunc i32 %19 to i16
  %21 = tail call i32 @lj_ir_kint(ptr noundef nonnull %0, i32 noundef 3) #9
  %22 = trunc i32 %21 to i16
  store i16 2195, ptr %17, align 4, !tbaa !4
  store i16 %20, ptr %16, align 8, !tbaa !4
  store i16 %22, ptr %18, align 2, !tbaa !4
  %23 = tail call i32 @lj_opt_fold(ptr noundef nonnull %0) #9
  %24 = getelementptr inbounds nuw i8, ptr %0, i64 181
  store i8 1, ptr %24, align 1, !tbaa !54
  %25 = tail call i32 @lj_ir_kint64(ptr noundef nonnull %0, i64 noundef 48) #9
  %26 = trunc i32 %25 to i16
  store i16 10505, ptr %17, align 4, !tbaa !4
  store i16 %15, ptr %16, align 8, !tbaa !4
  store i16 %26, ptr %18, align 2, !tbaa !4
  %27 = tail call i32 @lj_opt_fold(ptr noundef nonnull %0) #9
  %28 = trunc i32 %27 to i16
  store i16 21769, ptr %17, align 4, !tbaa !4
  store i16 %28, ptr %16, align 8, !tbaa !4
  store i16 2, ptr %18, align 2, !tbaa !4
  %29 = tail call i32 @lj_opt_fold(ptr noundef nonnull %0) #9
  %30 = load ptr, ptr %3, align 8, !tbaa !37
  %31 = getelementptr inbounds nuw i8, ptr %30, i64 4
  %32 = load i32, ptr %31, align 4, !tbaa !39
  %33 = and i32 %32, 520093696
  switch i32 %33, label %65 [
    i32 67108864, label %34
    i32 167772160, label %59
  ]

34:                                               ; preds = %recff_sbufx_check.exit
  %35 = trunc i32 %32 to i16
  %36 = tail call i32 @lj_ir_kint(ptr noundef nonnull %0, i32 noundef 0) #9
  %37 = trunc i32 %36 to i16
  store i16 16393, ptr %17, align 4, !tbaa !4
  store i16 %35, ptr %16, align 8, !tbaa !4
  store i16 %37, ptr %18, align 2, !tbaa !4
  %38 = tail call i32 @lj_opt_fold(ptr noundef nonnull %0) #9
  store i16 17683, ptr %17, align 4, !tbaa !4
  store i16 %35, ptr %16, align 8, !tbaa !4
  store i16 0, ptr %18, align 2, !tbaa !4
  %39 = tail call i32 @lj_opt_fold(ptr noundef nonnull %0) #9
  %40 = getelementptr inbounds nuw i8, ptr %0, i64 32
  %41 = load ptr, ptr %40, align 8, !tbaa !55
  %42 = and i32 %38, 65535
  %43 = zext nneg i32 %42 to i64
  %44 = getelementptr inbounds nuw %union.IRIns, ptr %41, i64 %43
  %45 = getelementptr inbounds nuw i8, ptr %44, i64 5
  %46 = load i8, ptr %45, align 1, !tbaa !4
  %47 = icmp eq i8 %46, 64
  br i1 %47, label %48, label %51

48:                                               ; preds = %34
  %49 = load i16, ptr %44, align 8, !tbaa !4
  %50 = zext i16 %49 to i32
  br label %57

51:                                               ; preds = %34
  %52 = and i32 %32, 32768
  %.not.not = icmp eq i32 %52, 0
  br i1 %.not.not, label %57, label %53

53:                                               ; preds = %51
  %54 = tail call i32 @lj_ir_kint64(ptr noundef nonnull %0, i64 noundef 24) #9
  %55 = trunc i32 %54 to i16
  store i16 10505, ptr %17, align 4, !tbaa !4
  store i16 %35, ptr %16, align 8, !tbaa !4
  store i16 %55, ptr %18, align 2, !tbaa !4
  %56 = tail call i32 @lj_opt_fold(ptr noundef nonnull %0) #9
  br label %57

57:                                               ; preds = %51, %53, %48
  %.037 = phi i32 [ %38, %48 ], [ %38, %51 ], [ %56, %53 ]
  %.0 = phi i32 [ %50, %48 ], [ %32, %51 ], [ %32, %53 ]
  %58 = tail call i32 (ptr, i32, ...) @lj_ir_call(ptr noundef nonnull %0, i32 noundef 24, i32 noundef %29, i32 noundef %.037, i32 noundef %39, i32 noundef %.0) #9
  br label %65

59:                                               ; preds = %recff_sbufx_check.exit
  %60 = load ptr, ptr %1, align 8, !tbaa !36
  %61 = getelementptr inbounds nuw i8, ptr %60, i64 8
  %62 = tail call i32 @lj_crecord_topcvoid(ptr noundef nonnull %0, i32 noundef %32, ptr noundef nonnull %61) #9
  %63 = tail call fastcc i32 @recff_sbufx_checkint(ptr noundef nonnull %0, ptr noundef nonnull %1, i64 noundef 2)
  %64 = tail call i32 (ptr, i32, ...) @lj_ir_call(ptr noundef nonnull %0, i32 noundef 24, i32 noundef %29, i32 noundef %62, i32 noundef %63, i32 noundef %32) #9
  br label %65

65:                                               ; preds = %recff_sbufx_check.exit, %59, %57
  ret void
}